; Function Attrs: mustprogress nofree norecurse nosync nounwind willreturn memory(read, inaccessiblemem: none) uwtable
define dso_local noundef zeroext i1 @_ZNK4llvm12VPBasicBlock9isExitingEv(ptr noundef nonnull readonly align 8 dereferenceable(128) %0) local_unnamed_addr #6 align 2 {
  %2 = getelementptr inbounds nuw i8, ptr %0, i64 48
  %3 = load ptr, ptr %2, align 8
  %.not = icmp eq ptr %3, null
  br i1 %.not, label %13, label %4

4:                                                ; preds = %1
  %5 = getelementptr inbounds nuw i8, ptr %3, i64 8
  %6 = load i8, ptr %5, align 8
  %.not8.i = icmp eq i8 %6, 0
  br i1 %.not8.i, label %.lr.ph.i, label %_ZNK4llvm11VPBlockBase20getExitingBasicBlockEv.exit

.lr.ph.i:                                         ; preds = %4, %.lr.ph.i
  %.07.i = phi ptr [ %8, %.lr.ph.i ], [ %3, %4 ]
  %7 = getelementptr inbounds nuw i8, ptr %.07.i, i64 120
  %8 = load ptr, ptr %7, align 8
  %9 = getelementptr inbounds nuw i8, ptr %8, i64 8
  %10 = load i8, ptr %9, align 8
  %11 = icmp ne i8 %10, 0
  %.not6.i = icmp eq ptr %8, null
  %.not.i = or i1 %.not6.i, %11
  br i1 %.not.i, label %_ZNK4llvm11VPBlockBase20getExitingBasicBlockEv.exit, label %.lr.ph.i, !llvm.loop !13

_ZNK4llvm11VPBlockBase20getExitingBasicBlockEv.exit: ; preds = %.lr.ph.i, %4
  %.0.lcssa.i = phi ptr [ %3, %4 ], [ %8, %.lr.ph.i ]
  %12 = icmp eq ptr %.0.lcssa.i, %0
  br label %13

13:                                               ; preds = %_ZNK4llvm11VPBlockBase20getExitingBasicBlockEv.exit, %1
  %14 = phi i1 [ false, %1 ], [ %12, %_ZNK4llvm11VPBlockBase20getExitingBasicBlockEv.exit ]
  ret i1 %14
}